target datalayout = "e-m:e-p270:32:32-p271:32:32-p272:64:64-i64:64-i128:128-f80:128-n8:16:32:64-S128"
target triple = "x86_64-pc-linux-gnu"

; Function Attrs: alwaysinline nounwind willreturn memory(none) uwtable
define internal i32 @av_clip_c(i32 noundef %0, i32 noundef %1, i32 noundef %2) #8 {
  %4 = alloca i32, align 4
  %5 = alloca i32, align 4
  %6 = alloca i32, align 4
  %7 = alloca i32, align 4
  store i32 %0, ptr %5, align 4, !tbaa !11
  store i32 %1, ptr %6, align 4, !tbaa !11
  store i32 %2, ptr %7, align 4, !tbaa !11
  %8 = load i32, ptr %5, align 4, !tbaa !11
  %9 = load i32, ptr %6, align 4, !tbaa !11
  %10 = icmp slt i32 %8, %9
  br i1 %10, label %11, label %13

11:                                               ; preds = %3
  %12 = load i32, ptr %6, align 4, !tbaa !11
  store i32 %12, ptr %4, align 4
  br label %21

13:                                               ; preds = %3
  %14 = load i32, ptr %5, align 4, !tbaa !11
  %15 = load i32, ptr %7, align 4, !tbaa !11
  %16 = icmp sgt i32 %14, %15
  br i1 %16, label %17, label %19

17:                                               ; preds = %13
  %18 = load i32, ptr %7, align 4, !tbaa !11
  store i32 %18, ptr %4, align 4
  br label %21

19:                                               ; preds = %13
  %20 = load i32, ptr %5, align 4, !tbaa !11
  store i32 %20, ptr %4, align 4
  br label %21

21:                                               ; preds = %19, %17, %11
  %22 = load i32, ptr %4, align 4
  ret i32 %22
}

; Function Attrs: nounwind uwtable
define internal void @filter16_column(ptr noundef %0, i32 noundef %1, float noundef %2, float noundef %3, ptr noundef %4, ptr noundef %5, i32 noundef %6, i32 noundef %7, i32 noundef %8, i32 noundef %9, i32 noundef %10) #0 {
  %12 = alloca ptr, align 8
  %13 = alloca i32, align 4
  %14 = alloca float, align 4
  %15 = alloca float, align 4
  %16 = alloca ptr, align 8
  %17 = alloca ptr, align 8
  %18 = alloca i32, align 4
  %19 = alloca i32, align 4
  %20 = alloca i32, align 4
  %21 = alloca i32, align 4
  %22 = alloca i32, align 4
  %23 = alloca [16 x i32], align 16
  %24 = alloca ptr, align 8
  %25 = alloca i32, align 4
  %26 = alloca i32, align 4
  %27 = alloca i32, align 4
  %28 = alloca i32, align 4
  %29 = alloca i32, align 4
  %30 = alloca i32, align 4
  store ptr %0, ptr %12, align 8, !tbaa !9
  store i32 %1, ptr %13, align 4, !tbaa !11
  store float %2, ptr %14, align 4, !tbaa !52
  store float %3, ptr %15, align 4, !tbaa !52
  store ptr %4, ptr %16, align 8, !tbaa !53
  store ptr %5, ptr %17, align 8, !tbaa !89
  store i32 %6, ptr %18, align 4, !tbaa !11
  store i32 %7, ptr %19, align 4, !tbaa !11
  store i32 %8, ptr %20, align 4, !tbaa !11
  store i32 %9, ptr %21, align 4, !tbaa !11
  store i32 %10, ptr %22, align 4, !tbaa !11
  call void @llvm.lifetime.start.p0(i64 64, ptr %23) #10
  call void @llvm.lifetime.start.p0(i64 8, ptr %24) #10
  %31 = load ptr, ptr %12, align 8, !tbaa !9
  store ptr %31, ptr %24, align 8, !tbaa !114
  call void @llvm.lifetime.start.p0(i64 4, ptr %25) #10
  %32 = load i32, ptr %22, align 4, !tbaa !11
  %33 = icmp sgt i32 16, %32
  br i1 %33, label %34, label %36

34:                                               ; preds = %11
  %35 = load i32, ptr %22, align 4, !tbaa !11
  br label %37

36:                                               ; preds = %11
  br label %37

37:                                               ; preds = %36, %34
  %38 = phi i32 [ %35, %34 ], [ 16, %36 ]
  store i32 %38, ptr %25, align 4, !tbaa !11
  call void @llvm.lifetime.start.p0(i64 4, ptr %26) #10
  store i32 0, ptr %26, align 4, !tbaa !11
  br label %39

39:                                               ; preds = %134, %37
  %40 = load i32, ptr %26, align 4, !tbaa !11
  %41 = load i32, ptr %13, align 4, !tbaa !11
  %42 = icmp slt i32 %40, %41
  br i1 %42, label %44, label %43

43:                                               ; preds = %39
  store i32 2, ptr %27, align 4
  call void @llvm.lifetime.end.p0(i64 4, ptr %26) #10
  br label %137

44:                                               ; preds = %39
  %45 = getelementptr inbounds [16 x i32], ptr %23, i64 0, i64 0
  call void @llvm.memset.p0.i64(ptr align 16 %45, i8 0, i64 64, i1 false)
  call void @llvm.lifetime.start.p0(i64 4, ptr %28) #10
  store i32 0, ptr %28, align 4, !tbaa !11
  br label %46

46:                                               ; preds = %91, %44
  %47 = load i32, ptr %28, align 4, !tbaa !11
  %48 = load i32, ptr %19, align 4, !tbaa !11
  %49 = mul nsw i32 2, %48
  %50 = add nsw i32 %49, 1
  %51 = icmp slt i32 %47, %50
  br i1 %51, label %53, label %52

52:                                               ; preds = %46
  store i32 5, ptr %27, align 4
  call void @llvm.lifetime.end.p0(i64 4, ptr %28) #10
  br label %94

53:                                               ; preds = %46
  call void @llvm.lifetime.start.p0(i64 4, ptr %29) #10
  store i32 0, ptr %29, align 4, !tbaa !11
  br label %54

54:                                               ; preds = %87, %53
  %55 = load i32, ptr %29, align 4, !tbaa !11
  %56 = load i32, ptr %25, align 4, !tbaa !11
  %57 = icmp slt i32 %55, %56
  br i1 %57, label %59, label %58

58:                                               ; preds = %54
  store i32 8, ptr %27, align 4
  call void @llvm.lifetime.end.p0(i64 4, ptr %29) #10
  br label %90

59:                                               ; preds = %54
  %60 = load ptr, ptr %17, align 8, !tbaa !89
  %61 = load i32, ptr %28, align 4, !tbaa !11
  %62 = sext i32 %61 to i64
  %63 = getelementptr inbounds ptr, ptr %60, i64 %62
  %64 = load ptr, ptr %63, align 8, !tbaa !9
  %65 = load i32, ptr %26, align 4, !tbaa !11
  %66 = load i32, ptr %21, align 4, !tbaa !11
  %67 = mul nsw i32 %65, %66
  %68 = add nsw i32 0, %67
  %69 = load i32, ptr %29, align 4, !tbaa !11
  %70 = mul nsw i32 %69, 2
  %71 = add nsw i32 %68, %70
  %72 = sext i32 %71 to i64
  %73 = getelementptr inbounds i8, ptr %64, i64 %72
  %74 = load i16, ptr %73, align 2, !tbaa !91
  %75 = zext i16 %74 to i32
  %76 = load ptr, ptr %16, align 8, !tbaa !53
  %77 = load i32, ptr %28, align 4, !tbaa !11
  %78 = sext i32 %77 to i64
  %79 = getelementptr inbounds i32, ptr %76, i64 %78
  %80 = load i32, ptr %79, align 4, !tbaa !11
  %81 = mul nsw i32 %75, %80
  %82 = load i32, ptr %29, align 4, !tbaa !11
  %83 = sext i32 %82 to i64
  %84 = getelementptr inbounds [16 x i32], ptr %23, i64 0, i64 %83
  %85 = load i32, ptr %84, align 4, !tbaa !11
  %86 = add nsw i32 %85, %81
  store i32 %86, ptr %84, align 4, !tbaa !11
  br label %87

87:                                               ; preds = %59
  %88 = load i32, ptr %29, align 4, !tbaa !11
  %89 = add nsw i32 %88, 1
  store i32 %89, ptr %29, align 4, !tbaa !11
  br label %54, !llvm.loop !120

90:                                               ; preds = %58
  br label %91

91:                                               ; preds = %90
  %92 = load i32, ptr %28, align 4, !tbaa !11
  %93 = add nsw i32 %92, 1
  store i32 %93, ptr %28, align 4, !tbaa !11
  br label %46, !llvm.loop !121

94:                                               ; preds = %52
  call void @llvm.lifetime.start.p0(i64 4, ptr %30) #10
  store i32 0, ptr %30, align 4, !tbaa !11
  br label %95

95:                                               ; preds = %125, %94
  %96 = load i32, ptr %30, align 4, !tbaa !11
  %97 = load i32, ptr %25, align 4, !tbaa !11
  %98 = icmp slt i32 %96, %97
  br i1 %98, label %100, label %99

99:                                               ; preds = %95
  store i32 11, ptr %27, align 4
  call void @llvm.lifetime.end.p0(i64 4, ptr %30) #10
  br label %128

100:                                              ; preds = %95
  %101 = load i32, ptr %30, align 4, !tbaa !11
  %102 = sext i32 %101 to i64
  %103 = getelementptr inbounds [16 x i32], ptr %23, i64 0, i64 %102
  %104 = load i32, ptr %103, align 4, !tbaa !11
  %105 = sitofp i32 %104 to float
  %106 = load float, ptr %14, align 4, !tbaa !52
  %107 = load float, ptr %15, align 4, !tbaa !52
  %108 = call nsz float @llvm.fmuladd.f32(float %105, float %106, float %107)
  %109 = fadd nsz float %108, 5.000000e-01
  %110 = fptosi float %109 to i32
  %111 = load i32, ptr %30, align 4, !tbaa !11
  %112 = sext i32 %111 to i64
  %113 = getelementptr inbounds [16 x i32], ptr %23, i64 0, i64 %112
  store i32 %110, ptr %113, align 4, !tbaa !11
  %114 = load i32, ptr %30, align 4, !tbaa !11
  %115 = sext i32 %114 to i64
  %116 = getelementptr inbounds [16 x i32], ptr %23, i64 0, i64 %115
  %117 = load i32, ptr %116, align 4, !tbaa !11
  %118 = load i32, ptr %18, align 4, !tbaa !11
  %119 = call i32 @av_clip_c(i32 noundef %117, i32 noundef 0, i32 noundef %118) #12
  %120 = trunc i32 %119 to i16
  %121 = load ptr, ptr %24, align 8, !tbaa !114
  %122 = load i32, ptr %30, align 4, !tbaa !11
  %123 = sext i32 %122 to i64
  %124 = getelementptr inbounds i16, ptr %121, i64 %123
  store i16 %120, ptr %124, align 2, !tbaa !117
  br label %125

125:                                              ; preds = %100
  %126 = load i32, ptr %30, align 4, !tbaa !11
  %127 = add nsw i32 %126, 1
  store i32 %127, ptr %30, align 4, !tbaa !11
  br label %95, !llvm.loop !122

128:                                              ; preds = %99
  %129 = load i32, ptr %20, align 4, !tbaa !11
  %130 = sdiv i32 %129, 2
  %131 = load ptr, ptr %24, align 8, !tbaa !114
  %132 = sext i32 %130 to i64
  %133 = getelementptr inbounds i16, ptr %131, i64 %132
  store ptr %133, ptr %24, align 8, !tbaa !114
  br label %134

134:                                              ; preds = %128
  %135 = load i32, ptr %26, align 4, !tbaa !11
  %136 = add nsw i32 %135, 1
  store i32 %136, ptr %26, align 4, !tbaa !11
  br label %39, !llvm.loop !123

137:                                              ; preds = %43
  call void @llvm.lifetime.end.p0(i64 4, ptr %25) #10
  call void @llvm.lifetime.end.p0(i64 8, ptr %24) #10
  call void @llvm.lifetime.end.p0(i64 64, ptr %23) #10
  ret void
}