; Function Attrs: nofree norecurse nosync nounwind memory(read, argmem: readwrite, inaccessiblemem: none) uwtable
define internal void @filter16_column(ptr noundef writeonly captures(none) %0, i32 noundef %1, float noundef %2, float noundef %3, ptr noundef readonly captures(none) %4, ptr noundef readonly captures(none) %5, i32 noundef %6, i32 noundef %7, i32 noundef %8, i32 noundef %9, i32 noundef %10) #6 {
  %12 = alloca [16 x i32], align 16
  call void @llvm.lifetime.start.p0(i64 64, ptr nonnull %12) #12
  %13 = tail call i32 @llvm.smin.i32(i32 %10, i32 16)
  %14 = icmp sgt i32 %1, 0
  br i1 %14, label %.lr.ph44, label %._crit_edge45

.lr.ph44:                                         ; preds = %11
  %15 = shl i32 %7, 1
  %.not38 = icmp slt i32 %7, 0
  %16 = icmp sgt i32 %10, 0
  %17 = sdiv i32 %8, 2
  %18 = sext i32 %17 to i64
  br i1 %.not38, label %.lr.ph44.split.us, label %.lr.ph44.split

.lr.ph44.split.us:                                ; preds = %.lr.ph44
  br i1 %16, label %.preheader36.us.us.preheader, label %._crit_edge45

.preheader36.us.us.preheader:                     ; preds = %.lr.ph44.split.us
  %wide.trip.count83 = zext nneg i32 %13 to i64
  br label %.preheader36.us.us

.preheader36.us.us:                               ; preds = %.preheader36.us.us.preheader, %._crit_edge.us46.us
  %.03442.us.us = phi i32 [ %31, %._crit_edge.us46.us ], [ 0, %.preheader36.us.us.preheader ]
  %.03541.us.us = phi ptr [ %30, %._crit_edge.us46.us ], [ %0, %.preheader36.us.us.preheader ]
  call void @llvm.memset.p0.i64(ptr noundef nonnull align 16 dereferenceable(64) %12, i8 0, i64 64, i1 false)
  br label %19

19:                                               ; preds = %.preheader36.us.us, %19
  %indvars.iv80 = phi i64 [ 0, %.preheader36.us.us ], [ %indvars.iv.next81, %19 ]
  %20 = getelementptr inbounds nuw [16 x i32], ptr %12, i64 0, i64 %indvars.iv80
  %21 = load i32, ptr %20, align 4, !tbaa !39
  %22 = sitofp i32 %21 to float
  %23 = tail call nsz float @llvm.fmuladd.f32(float %22, float %2, float %3)
  %24 = fadd nsz float %23, 5.000000e-01
  %25 = fptosi float %24 to i32
  store i32 %25, ptr %20, align 4, !tbaa !39
  %26 = icmp slt i32 %25, 0
  %..i.us.us = tail call i32 @llvm.smin.i32(i32 %6, i32 %25)
  %27 = trunc i32 %..i.us.us to i16
  %28 = select i1 %26, i16 0, i16 %27
  %29 = getelementptr inbounds nuw i16, ptr %.03541.us.us, i64 %indvars.iv80
  store i16 %28, ptr %29, align 2, !tbaa !103
  %indvars.iv.next81 = add nuw nsw i64 %indvars.iv80, 1
  %exitcond84.not = icmp eq i64 %indvars.iv.next81, %wide.trip.count83
  br i1 %exitcond84.not, label %._crit_edge.us46.us, label %19, !llvm.loop !107

._crit_edge.us46.us:                              ; preds = %19
  %30 = getelementptr inbounds i16, ptr %.03541.us.us, i64 %18
  %31 = add nuw nsw i32 %.03442.us.us, 1
  %exitcond85.not = icmp eq i32 %31, %1
  br i1 %exitcond85.not, label %._crit_edge45, label %.preheader36.us.us, !llvm.loop !108

.lr.ph44.split:                                   ; preds = %.lr.ph44
  br i1 %16, label %.preheader.lr.ph.us.preheader, label %._crit_edge45

.preheader.lr.ph.us.preheader:                    ; preds = %.lr.ph44.split
  %smax = tail call i32 @llvm.smax.i32(i32 %15, i32 0)
  %32 = or disjoint i32 %smax, 1
  %33 = sext i32 %9 to i64
  %wide.trip.count77 = zext nneg i32 %1 to i64
  %wide.trip.count67 = zext nneg i32 %32 to i64
  %wide.trip.count = zext nneg i32 %13 to i64
  br label %.preheader.lr.ph.us

.preheader.lr.ph.us:                              ; preds = %.preheader.lr.ph.us.preheader, %._crit_edge.us52
  %indvars.iv74 = phi i64 [ 0, %.preheader.lr.ph.us.preheader ], [ %indvars.iv.next75, %._crit_edge.us52 ]
  %.03541.us48 = phi ptr [ %0, %.preheader.lr.ph.us.preheader ], [ %35, %._crit_edge.us52 ]
  call void @llvm.memset.p0.i64(ptr noundef nonnull align 16 dereferenceable(64) %12, i8 0, i64 64, i1 false)
  %34 = mul nsw i64 %indvars.iv74, %33
  br label %.preheader.us.us

._crit_edge.us52:                                 ; preds = %.lr.ph.us51
  %35 = getelementptr inbounds i16, ptr %.03541.us48, i64 %18
  %indvars.iv.next75 = add nuw nsw i64 %indvars.iv74, 1
  %exitcond78.not = icmp eq i64 %indvars.iv.next75, %wide.trip.count77
  br i1 %exitcond78.not, label %._crit_edge45, label %.preheader.lr.ph.us, !llvm.loop !108

.lr.ph.us51:                                      ; preds = %._crit_edge.us.us, %.lr.ph.us51
  %indvars.iv69 = phi i64 [ %indvars.iv.next70, %.lr.ph.us51 ], [ 0, %._crit_edge.us.us ]
  %36 = getelementptr inbounds nuw [16 x i32], ptr %12, i64 0, i64 %indvars.iv69
  %37 = load i32, ptr %36, align 4, !tbaa !39
  %38 = sitofp i32 %37 to float
  %39 = tail call nsz float @llvm.fmuladd.f32(float %38, float %2, float %3)
  %40 = fadd nsz float %39, 5.000000e-01
  %41 = fptosi float %40 to i32
  store i32 %41, ptr %36, align 4, !tbaa !39
  %42 = icmp slt i32 %41, 0
  %..i.us50 = tail call i32 @llvm.smin.i32(i32 %6, i32 %41)
  %43 = trunc i32 %..i.us50 to i16
  %44 = select i1 %42, i16 0, i16 %43
  %45 = getelementptr inbounds nuw i16, ptr %.03541.us48, i64 %indvars.iv69
  store i16 %44, ptr %45, align 2, !tbaa !103
  %indvars.iv.next70 = add nuw nsw i64 %indvars.iv69, 1
  %exitcond73.not = icmp eq i64 %indvars.iv.next70, %wide.trip.count
  br i1 %exitcond73.not, label %._crit_edge.us52, label %.lr.ph.us51, !llvm.loop !107

.preheader.us.us:                                 ; preds = %._crit_edge.us.us, %.preheader.lr.ph.us
  %indvars.iv64 = phi i64 [ %indvars.iv.next65, %._crit_edge.us.us ], [ 0, %.preheader.lr.ph.us ]
  %46 = getelementptr inbounds nuw ptr, ptr %5, i64 %indvars.iv64
  %47 = load ptr, ptr %46, align 8, !tbaa !46
  %48 = getelementptr inbounds nuw i32, ptr %4, i64 %indvars.iv64
  %49 = load i32, ptr %48, align 4, !tbaa !39
  %invariant.gep = getelementptr i8, ptr %47, i64 %34
  br label %50

50:                                               ; preds = %50, %.preheader.us.us
  %indvars.iv = phi i64 [ %indvars.iv.next, %50 ], [ 0, %.preheader.us.us ]
  %51 = shl nuw nsw i64 %indvars.iv, 1
  %gep = getelementptr i8, ptr %invariant.gep, i64 %51
  %52 = load i16, ptr %gep, align 2, !tbaa !82
  %53 = zext i16 %52 to i32
  %54 = mul nsw i32 %49, %53
  %55 = getelementptr inbounds nuw [16 x i32], ptr %12, i64 0, i64 %indvars.iv
  %56 = load i32, ptr %55, align 4, !tbaa !39
  %57 = add nsw i32 %56, %54
  store i32 %57, ptr %55, align 4, !tbaa !39
  %indvars.iv.next = add nuw nsw i64 %indvars.iv, 1
  %exitcond63.not = icmp eq i64 %indvars.iv.next, %wide.trip.count
  br i1 %exitcond63.not, label %._crit_edge.us.us, label %50, !llvm.loop !109

._crit_edge.us.us:                                ; preds = %50
  %indvars.iv.next65 = add nuw nsw i64 %indvars.iv64, 1
  %exitcond68.not = icmp eq i64 %indvars.iv.next65, %wide.trip.count67
  br i1 %exitcond68.not, label %.lr.ph.us51, label %.preheader.us.us, !llvm.loop !110

._crit_edge45:                                    ; preds = %._crit_edge.us52, %._crit_edge.us46.us, %.lr.ph44.split, %.lr.ph44.split.us, %11
  call void @llvm.lifetime.end.p0(i64 64, ptr nonnull %12) #12
  ret void
}